#include <math.h>
#include <stdio.h>
#include <stdlib.h>
#include <string.h>

int main()
{
	int n;
	scanf("%d",&n);
	char a[102];
	int i,j,L,k;
	int b[102]={0};
	for(k=0;k<n;k++)
	{
		for(i=0;i<102;i++)
		{
			a[i]=0;
			b[i]=0;
		}
		scanf("%s",a);
		printf("%s\n",a);
	L=strlen(a);
		for(i=L-1;i>=0;i--)
		{
			if(a[i]=='(')
			{
				for(j=i+1;j<L;j++)
				{
					if(a[j]==')')
					
					{
						a[i]=0;
						a[j]=0;
						break;
					}
                }
	        if(j==L) b[i]=1;
			}
		}
	
		for(i=0;i<L;i++)
		{
			if(a[i]==')')
			 b[i]=2;
                
		}
		for(i=0;i<L;i++)
		{
			if(b[i]==1) printf("$");
			else if(b[i]==2) printf("?");
			else printf(" ");
		}
printf("\n");
	}
		return 0;
}



