; ModuleID = '17/1233.c'
source_filename = "17/1233.c"
target datalayout = "e-m:e-p270:32:32-p271:32:32-p272:64:64-i64:64-f80:128-n8:16:32:64-S128"
target triple = "x86_64-pc-linux-gnu"

@.str = private unnamed_addr constant [3 x i8] c"%d\00", align 1
@.str.1 = private unnamed_addr constant [3 x i8] c"%s\00", align 1
@.str.2 = private unnamed_addr constant [4 x i8] c"%s\0A\00", align 1
@.str.3 = private unnamed_addr constant [2 x i8] c"$\00", align 1
@.str.4 = private unnamed_addr constant [2 x i8] c"?\00", align 1
@.str.5 = private unnamed_addr constant [2 x i8] c" \00", align 1
@.str.6 = private unnamed_addr constant [2 x i8] c"\0A\00", align 1

; Function Attrs: noinline nounwind uwtable
define dso_local i32 @main() #0 {
  %1 = alloca i32, align 4
  %2 = alloca i32, align 4
  %3 = alloca [102 x i8], align 16
  %4 = alloca i32, align 4
  %5 = alloca i32, align 4
  %6 = alloca i32, align 4
  %7 = alloca i32, align 4
  %8 = alloca [102 x i32], align 16
  store i32 0, i32* %1, align 4
  %9 = call i32 (i8*, ...) @__isoc99_scanf(i8* getelementptr inbounds ([3 x i8], [3 x i8]* @.str, i64 0, i64 0), i32* %2)
  %10 = bitcast [102 x i32]* %8 to i8*
  call void @llvm.memset.p0i8.i64(i8* align 16 %10, i8 0, i64 408, i1 false)
  store i32 0, i32* %7, align 4
  br label %11

11:                                               ; preds = %137, %0
  %12 = load i32, i32* %7, align 4
  %13 = load i32, i32* %2, align 4
  %14 = icmp slt i32 %12, %13
  br i1 %14, label %15, label %140

15:                                               ; preds = %11
  store i32 0, i32* %4, align 4
  br label %16

16:                                               ; preds = %26, %15
  %17 = load i32, i32* %4, align 4
  %18 = icmp slt i32 %17, 102
  br i1 %18, label %19, label %29

19:                                               ; preds = %16
  %20 = load i32, i32* %4, align 4
  %21 = sext i32 %20 to i64
  %22 = getelementptr inbounds [102 x i8], [102 x i8]* %3, i64 0, i64 %21
  store i8 0, i8* %22, align 1
  %23 = load i32, i32* %4, align 4
  %24 = sext i32 %23 to i64
  %25 = getelementptr inbounds [102 x i32], [102 x i32]* %8, i64 0, i64 %24
  store i32 0, i32* %25, align 4
  br label %26

26:                                               ; preds = %19
  %27 = load i32, i32* %4, align 4
  %28 = add nsw i32 %27, 1
  store i32 %28, i32* %4, align 4
  br label %16

29:                                               ; preds = %16
  %30 = getelementptr inbounds [102 x i8], [102 x i8]* %3, i64 0, i64 0
  %31 = call i32 (i8*, ...) @__isoc99_scanf(i8* getelementptr inbounds ([3 x i8], [3 x i8]* @.str.1, i64 0, i64 0), i8* %30)
  %32 = getelementptr inbounds [102 x i8], [102 x i8]* %3, i64 0, i64 0
  %33 = call i32 (i8*, ...) @printf(i8* getelementptr inbounds ([4 x i8], [4 x i8]* @.str.2, i64 0, i64 0), i8* %32)
  %34 = getelementptr inbounds [102 x i8], [102 x i8]* %3, i64 0, i64 0
  %35 = call i64 @strlen(i8* %34) #4
  %36 = trunc i64 %35 to i32
  store i32 %36, i32* %6, align 4
  %37 = load i32, i32* %6, align 4
  %38 = sub nsw i32 %37, 1
  store i32 %38, i32* %4, align 4
  br label %39

39:                                               ; preds = %84, %29
  %40 = load i32, i32* %4, align 4
  %41 = icmp sge i32 %40, 0
  br i1 %41, label %42, label %87

42:                                               ; preds = %39
  %43 = load i32, i32* %4, align 4
  %44 = sext i32 %43 to i64
  %45 = getelementptr inbounds [102 x i8], [102 x i8]* %3, i64 0, i64 %44
  %46 = load i8, i8* %45, align 1
  %47 = sext i8 %46 to i32
  %48 = icmp eq i32 %47, 40
  br i1 %48, label %49, label %83

49:                                               ; preds = %42
  %50 = load i32, i32* %4, align 4
  %51 = add nsw i32 %50, 1
  store i32 %51, i32* %5, align 4
  br label %52

52:                                               ; preds = %71, %49
  %53 = load i32, i32* %5, align 4
  %54 = load i32, i32* %6, align 4
  %55 = icmp slt i32 %53, %54
  br i1 %55, label %56, label %74

56:                                               ; preds = %52
  %57 = load i32, i32* %5, align 4
  %58 = sext i32 %57 to i64
  %59 = getelementptr inbounds [102 x i8], [102 x i8]* %3, i64 0, i64 %58
  %60 = load i8, i8* %59, align 1
  %61 = sext i8 %60 to i32
  %62 = icmp eq i32 %61, 41
  br i1 %62, label %63, label %70

63:                                               ; preds = %56
  %64 = load i32, i32* %4, align 4
  %65 = sext i32 %64 to i64
  %66 = getelementptr inbounds [102 x i8], [102 x i8]* %3, i64 0, i64 %65
  store i8 0, i8* %66, align 1
  %67 = load i32, i32* %5, align 4
  %68 = sext i32 %67 to i64
  %69 = getelementptr inbounds [102 x i8], [102 x i8]* %3, i64 0, i64 %68
  store i8 0, i8* %69, align 1
  br label %74

70:                                               ; preds = %56
  br label %71

71:                                               ; preds = %70
  %72 = load i32, i32* %5, align 4
  %73 = add nsw i32 %72, 1
  store i32 %73, i32* %5, align 4
  br label %52

74:                                               ; preds = %63, %52
  %75 = load i32, i32* %5, align 4
  %76 = load i32, i32* %6, align 4
  %77 = icmp eq i32 %75, %76
  br i1 %77, label %78, label %82

78:                                               ; preds = %74
  %79 = load i32, i32* %4, align 4
  %80 = sext i32 %79 to i64
  %81 = getelementptr inbounds [102 x i32], [102 x i32]* %8, i64 0, i64 %80
  store i32 1, i32* %81, align 4
  br label %82

82:                                               ; preds = %78, %74
  br label %83

83:                                               ; preds = %82, %42
  br label %84

84:                                               ; preds = %83
  %85 = load i32, i32* %4, align 4
  %86 = add nsw i32 %85, -1
  store i32 %86, i32* %4, align 4
  br label %39

87:                                               ; preds = %39
  store i32 0, i32* %4, align 4
  br label %88

88:                                               ; preds = %104, %87
  %89 = load i32, i32* %4, align 4
  %90 = load i32, i32* %6, align 4
  %91 = icmp slt i32 %89, %90
  br i1 %91, label %92, label %107

92:                                               ; preds = %88
  %93 = load i32, i32* %4, align 4
  %94 = sext i32 %93 to i64
  %95 = getelementptr inbounds [102 x i8], [102 x i8]* %3, i64 0, i64 %94
  %96 = load i8, i8* %95, align 1
  %97 = sext i8 %96 to i32
  %98 = icmp eq i32 %97, 41
  br i1 %98, label %99, label %103

99:                                               ; preds = %92
  %100 = load i32, i32* %4, align 4
  %101 = sext i32 %100 to i64
  %102 = getelementptr inbounds [102 x i32], [102 x i32]* %8, i64 0, i64 %101
  store i32 2, i32* %102, align 4
  br label %103

103:                                              ; preds = %99, %92
  br label %104

104:                                              ; preds = %103
  %105 = load i32, i32* %4, align 4
  %106 = add nsw i32 %105, 1
  store i32 %106, i32* %4, align 4
  br label %88

107:                                              ; preds = %88
  store i32 0, i32* %4, align 4
  br label %108

108:                                              ; preds = %132, %107
  %109 = load i32, i32* %4, align 4
  %110 = load i32, i32* %6, align 4
  %111 = icmp slt i32 %109, %110
  br i1 %111, label %112, label %135

112:                                              ; preds = %108
  %113 = load i32, i32* %4, align 4
  %114 = sext i32 %113 to i64
  %115 = getelementptr inbounds [102 x i32], [102 x i32]* %8, i64 0, i64 %114
  %116 = load i32, i32* %115, align 4
  %117 = icmp eq i32 %116, 1
  br i1 %117, label %118, label %120

118:                                              ; preds = %112
  %119 = call i32 (i8*, ...) @printf(i8* getelementptr inbounds ([2 x i8], [2 x i8]* @.str.3, i64 0, i64 0))
  br label %131

120:                                              ; preds = %112
  %121 = load i32, i32* %4, align 4
  %122 = sext i32 %121 to i64
  %123 = getelementptr inbounds [102 x i32], [102 x i32]* %8, i64 0, i64 %122
  %124 = load i32, i32* %123, align 4
  %125 = icmp eq i32 %124, 2
  br i1 %125, label %126, label %128

126:                                              ; preds = %120
  %127 = call i32 (i8*, ...) @printf(i8* getelementptr inbounds ([2 x i8], [2 x i8]* @.str.4, i64 0, i64 0))
  br label %130

128:                                              ; preds = %120
  %129 = call i32 (i8*, ...) @printf(i8* getelementptr inbounds ([2 x i8], [2 x i8]* @.str.5, i64 0, i64 0))
  br label %130

130:                                              ; preds = %128, %126
  br label %131

131:                                              ; preds = %130, %118
  br label %132

132:                                              ; preds = %131
  %133 = load i32, i32* %4, align 4
  %134 = add nsw i32 %133, 1
  store i32 %134, i32* %4, align 4
  br label %108

135:                                              ; preds = %108
  %136 = call i32 (i8*, ...) @printf(i8* getelementptr inbounds ([2 x i8], [2 x i8]* @.str.6, i64 0, i64 0))
  br label %137

137:                                              ; preds = %135
  %138 = load i32, i32* %7, align 4
  %139 = add nsw i32 %138, 1
  store i32 %139, i32* %7, align 4
  br label %11

140:                                              ; preds = %11
  ret i32 0
}

declare dso_local i32 @__isoc99_scanf(i8*, ...) #1

; Function Attrs: argmemonly nounwind willreturn
declare void @llvm.memset.p0i8.i64(i8* nocapture writeonly, i8, i64, i1 immarg) #2

declare dso_local i32 @printf(i8*, ...) #1

; Function Attrs: nounwind readonly
declare dso_local i64 @strlen(i8*) #3


!llvm.module.flags = !{!0}
!llvm.ident = !{!1}

!0 = !{i32 1, !"wchar_size", i32 4}
!1 = !{!"clang version 10.0.0-4ubuntu1 "}
